target datalayout = "e-m:e-p270:32:32-p271:32:32-p272:64:64-i64:64-f80:128-n8:16:32:64-S128"
target triple = "x86_64-pc-linux-gnu"

@.str = private unnamed_addr constant [3 x i8] c"%d\00", align 1
@.str.1 = private unnamed_addr constant [3 x i8] c"%s\00", align 1

; Function Attrs: noinline nounwind uwtable
define dso_local void @main() #0 {
  %1 = alloca [50 x [200 x i8]], align 16
  %2 = alloca [50 x [200 x i8]], align 16
  %3 = alloca i32, align 4
  %4 = alloca i32, align 4
  store i32 0, i32* %4, align 4
  %5 = call i32 (i8*, ...) @__isoc99_scanf(i8* getelementptr inbounds ([3 x i8], [3 x i8]* @.str, i64 0, i64 0), i32* %3)
  store i32 0, i32* %4, align 4
  br label %6

6:                                                ; preds = %21, %0
  %7 = load i32, i32* %4, align 4
  %8 = load i32, i32* %3, align 4
  %9 = icmp slt i32 %7, %8
  br i1 %9, label %10, label %24

10:                                               ; preds = %6
  %11 = load i32, i32* %4, align 4
  %12 = sext i32 %11 to i64
  %13 = getelementptr inbounds [50 x [200 x i8]], [50 x [200 x i8]]* %2, i64 0, i64 %12
  %14 = getelementptr inbounds [200 x i8], [200 x i8]* %13, i64 0, i64 0
  %15 = call i32 (i8*, ...) @__isoc99_scanf(i8* getelementptr inbounds ([3 x i8], [3 x i8]* @.str.1, i64 0, i64 0), i8* %14)
  %16 = load i32, i32* %4, align 4
  %17 = sext i32 %16 to i64
  %18 = getelementptr inbounds [50 x [200 x i8]], [50 x [200 x i8]]* %1, i64 0, i64 %17
  %19 = getelementptr inbounds [200 x i8], [200 x i8]* %18, i64 0, i64 0
  %20 = call i32 (i8*, ...) @__isoc99_scanf(i8* getelementptr inbounds ([3 x i8], [3 x i8]* @.str.1, i64 0, i64 0), i8* %19)
  br label %21

21:                                               ; preds = %10
  %22 = load i32, i32* %4, align 4
  %23 = add nsw i32 %22, 1
  store i32 %23, i32* %4, align 4
  br label %6

24:                                               ; preds = %6
  store i32 0, i32* %4, align 4
  br label %25

25:                                               ; preds = %38, %24
  %26 = load i32, i32* %4, align 4
  %27 = load i32, i32* %3, align 4
  %28 = icmp slt i32 %26, %27
  br i1 %28, label %29, label %41

29:                                               ; preds = %25
  %30 = load i32, i32* %4, align 4
  %31 = sext i32 %30 to i64
  %32 = getelementptr inbounds [50 x [200 x i8]], [50 x [200 x i8]]* %2, i64 0, i64 %31
  %33 = getelementptr inbounds [200 x i8], [200 x i8]* %32, i64 0, i64 0
  %34 = load i32, i32* %4, align 4
  %35 = sext i32 %34 to i64
  %36 = getelementptr inbounds [50 x [200 x i8]], [50 x [200 x i8]]* %1, i64 0, i64 %35
  %37 = getelementptr inbounds [200 x i8], [200 x i8]* %36, i64 0, i64 0
  call void @MINUS(i8* %33, i8* %37)
  br label %38

38:                                               ; preds = %29
  %39 = load i32, i32* %4, align 4
  %40 = add nsw i32 %39, 1
  store i32 %40, i32* %4, align 4
  br label %25

41:                                               ; preds = %25
  ret void
}

; Function Attrs: noinline nounwind uwtable
define dso_local void @MINUS(i8* %0, i8* %1) #0 {
  %3 = alloca i8*, align 8
  %4 = alloca i8*, align 8
  %5 = alloca i32, align 4
  %6 = alloca i32, align 4
  %7 = alloca i32, align 4
  %8 = alloca i32, align 4
  %9 = alloca [200 x i8], align 16
  %10 = alloca i32, align 4
  %11 = alloca i8, align 1
  store i8* %0, i8** %3, align 8
  store i8* %1, i8** %4, align 8
  store i32 0, i32* %10, align 4
  store i8 48, i8* %11, align 1
  %12 = load i8*, i8** %3, align 8
  %13 = call i64 @strlen(i8* %12) #3
  %14 = trunc i64 %13 to i32
  store i32 %14, i32* %5, align 4
  %15 = load i8*, i8** %4, align 8
  %16 = call i64 @strlen(i8* %15) #3
  %17 = trunc i64 %16 to i32
  store i32 %17, i32* %6, align 4
  store i32 0, i32* %7, align 4
  br label %18

18:                                               ; preds = %28, %2
  %19 = load i32, i32* %7, align 4
  %20 = load i32, i32* %5, align 4
  %21 = load i32, i32* %6, align 4
  %22 = sub nsw i32 %20, %21
  %23 = icmp slt i32 %19, %22
  br i1 %23, label %24, label %31

24:                                               ; preds = %18
  %25 = load i32, i32* %7, align 4
  %26 = sext i32 %25 to i64
  %27 = getelementptr inbounds [200 x i8], [200 x i8]* %9, i64 0, i64 %26
  store i8 48, i8* %27, align 1
  br label %28

28:                                               ; preds = %24
  %29 = load i32, i32* %7, align 4
  %30 = add nsw i32 %29, 1
  store i32 %30, i32* %7, align 4
  br label %18

31:                                               ; preds = %18
  %32 = load i32, i32* %7, align 4
  %33 = add nsw i32 %32, 1
  store i32 %33, i32* %8, align 4
  br label %34

34:                                               ; preds = %50, %31
  %35 = load i32, i32* %7, align 4
  %36 = icmp slt i32 %35, 200
  br i1 %36, label %37, label %53

37:                                               ; preds = %34
  %38 = load i8*, i8** %4, align 8
  %39 = load i32, i32* %7, align 4
  %40 = load i32, i32* %5, align 4
  %41 = sub nsw i32 %39, %40
  %42 = load i32, i32* %6, align 4
  %43 = add nsw i32 %41, %42
  %44 = sext i32 %43 to i64
  %45 = getelementptr inbounds i8, i8* %38, i64 %44
  %46 = load i8, i8* %45, align 1
  %47 = load i32, i32* %7, align 4
  %48 = sext i32 %47 to i64
  %49 = getelementptr inbounds [200 x i8], [200 x i8]* %9, i64 0, i64 %48
  store i8 %46, i8* %49, align 1
  br label %50

50:                                               ; preds = %37
  %51 = load i32, i32* %7, align 4
  %52 = add nsw i32 %51, 1
  store i32 %52, i32* %7, align 4
  br label %34

53:                                               ; preds = %34
  %54 = load i32, i32* %5, align 4
  %55 = sub nsw i32 %54, 1
  store i32 %55, i32* %7, align 4
  br label %56

56:                                               ; preds = %119, %53
  %57 = load i32, i32* %7, align 4
  %58 = icmp sge i32 %57, 0
  br i1 %58, label %59, label %122

59:                                               ; preds = %56
  %60 = load i8*, i8** %3, align 8
  %61 = load i32, i32* %7, align 4
  %62 = sext i32 %61 to i64
  %63 = getelementptr inbounds i8, i8* %60, i64 %62
  %64 = load i8, i8* %63, align 1
  %65 = sext i8 %64 to i32
  %66 = load i32, i32* %7, align 4
  %67 = sext i32 %66 to i64
  %68 = getelementptr inbounds [200 x i8], [200 x i8]* %9, i64 0, i64 %67
  %69 = load i8, i8* %68, align 1
  %70 = sext i8 %69 to i32
  %71 = sub nsw i32 %65, %70
  %72 = load i32, i32* %10, align 4
  %73 = add nsw i32 %71, %72
  %74 = icmp sge i32 %73, 0
  br i1 %74, label %75, label %96

75:                                               ; preds = %59
  %76 = load i8*, i8** %3, align 8
  %77 = load i32, i32* %7, align 4
  %78 = sext i32 %77 to i64
  %79 = getelementptr inbounds i8, i8* %76, i64 %78
  %80 = load i8, i8* %79, align 1
  %81 = sext i8 %80 to i32
  %82 = load i32, i32* %7, align 4
  %83 = sext i32 %82 to i64
  %84 = getelementptr inbounds [200 x i8], [200 x i8]* %9, i64 0, i64 %83
  %85 = load i8, i8* %84, align 1
  %86 = sext i8 %85 to i32
  %87 = sub nsw i32 %81, %86
  %88 = load i32, i32* %10, align 4
  %89 = add nsw i32 %87, %88
  %90 = add nsw i32 %89, 48
  %91 = trunc i32 %90 to i8
  %92 = load i8*, i8** %3, align 8
  %93 = load i32, i32* %7, align 4
  %94 = sext i32 %93 to i64
  %95 = getelementptr inbounds i8, i8* %92, i64 %94
  store i8 %91, i8* %95, align 1
  store i32 0, i32* %10, align 4
  br label %118

96:                                               ; preds = %59
  %97 = load i8*, i8** %3, align 8
  %98 = load i32, i32* %7, align 4
  %99 = sext i32 %98 to i64
  %100 = getelementptr inbounds i8, i8* %97, i64 %99
  %101 = load i8, i8* %100, align 1
  %102 = sext i8 %101 to i32
  %103 = load i32, i32* %7, align 4
  %104 = sext i32 %103 to i64
  %105 = getelementptr inbounds [200 x i8], [200 x i8]* %9, i64 0, i64 %104
  %106 = load i8, i8* %105, align 1
  %107 = sext i8 %106 to i32
  %108 = sub nsw i32 %102, %107
  %109 = load i32, i32* %10, align 4
  %110 = add nsw i32 %108, %109
  %111 = add nsw i32 %110, 48
  %112 = add nsw i32 %111, 10
  %113 = trunc i32 %112 to i8
  %114 = load i8*, i8** %3, align 8
  %115 = load i32, i32* %7, align 4
  %116 = sext i32 %115 to i64
  %117 = getelementptr inbounds i8, i8* %114, i64 %116
  store i8 %113, i8* %117, align 1
  store i32 -1, i32* %10, align 4
  br label %118

118:                                              ; preds = %96, %75
  br label %119

119:                                              ; preds = %118
  %120 = load i32, i32* %7, align 4
  %121 = add nsw i32 %120, -1
  store i32 %121, i32* %7, align 4
  br label %56

122:                                              ; preds = %56
  store i32 0, i32* %7, align 4
  br label %123

123:                                              ; preds = %154, %122
  %124 = load i32, i32* %7, align 4
  %125 = icmp slt i32 %124, 200
  br i1 %125, label %126, label %157

126:                                              ; preds = %123
  %127 = load i8*, i8** %3, align 8
  %128 = load i32, i32* %7, align 4
  %129 = sext i32 %128 to i64
  %130 = getelementptr inbounds i8, i8* %127, i64 %129
  %131 = load i8, i8* %130, align 1
  %132 = sext i8 %131 to i32
  %133 = icmp eq i32 %132, 0
  br i1 %133, label %134, label %135

134:                                              ; preds = %126
  br label %157

135:                                              ; preds = %126
  %136 = load i8*, i8** %3, align 8
  %137 = load i32, i32* %7, align 4
  %138 = sext i32 %137 to i64
  %139 = getelementptr inbounds i8, i8* %136, i64 %138
  %140 = load i8, i8* %139, align 1
  %141 = sext i8 %140 to i32
  %142 = load i8, i8* %11, align 1
  %143 = sext i8 %142 to i32
  %144 = icmp ne i32 %141, %143
  br i1 %144, label %145, label %153

145:                                              ; preds = %135
  %146 = load i8*, i8** %3, align 8
  %147 = load i32, i32* %7, align 4
  %148 = sext i32 %147 to i64
  %149 = getelementptr inbounds i8, i8* %146, i64 %148
  %150 = load i8, i8* %149, align 1
  %151 = sext i8 %150 to i32
  %152 = call i32 @putchar(i32 %151)
  store i8 42, i8* %11, align 1
  br label %153

153:                                              ; preds = %145, %135
  br label %154

154:                                              ; preds = %153
  %155 = load i32, i32* %7, align 4
  %156 = add nsw i32 %155, 1
  store i32 %156, i32* %7, align 4
  br label %123

157:                                              ; preds = %134, %123
  %158 = call i32 @putchar(i32 10)
  ret void
}